target datalayout = "e-m:e-p270:32:32-p271:32:32-p272:64:64-i64:64-i128:128-f80:128-n8:16:32:64-S128"
target triple = "x86_64-pc-linux-gnu"

%struct.expert_field = type { i32, i32 }
%struct._asn1_ctx_t = type { i32, i32, i8, ptr, ptr, ptr, ptr, ptr, %struct.anon.0, %struct.anon.3, %struct.anon.4, ptr }
%struct.anon.0 = type { i32, i8, i8, i8, ptr, ptr, i32, i32, ptr, ptr, ptr, %union.anon }
%union.anon = type { %struct.anon.1 }
%struct.anon.1 = type { ptr }
%struct.anon.3 = type { ptr, ptr, ptr }
%struct.anon.4 = type { i32, i8, ptr, i32, i32, ptr, ptr, ptr, %union.anon.5 }
%union.anon.5 = type { %struct.anon.6 }
%struct.anon.6 = type { ptr }

@ei_gtpv2_ie_data_not_dissected = internal global %struct.expert_field zeroinitializer, align 4
@.str.3 = private unnamed_addr constant [37 x i8] c"The rest of the IE not dissected yet\00", align 1
@hf_gtpv2_spare_bits = internal global i32 0, align 4
@hf_gtpv2_ebi = internal global i32 0, align 4
@hf_gtpv2_secondary_rat_usage_data_report = internal global i32 0, align 4
@hf_gtpv2_secondary_rat_usage_data_report_rat_type = internal global i32 0, align 4
@hf_gtpv2_secondary_rat_usage_data_report_start_timestamp = internal global i32 0, align 4
@hf_gtpv2_secondary_rat_usage_data_report_end_timestamp = internal global i32 0, align 4
@hf_gtpv2_secondary_rat_usage_data_report_usage_data_dl = internal global i32 0, align 4
@hf_gtpv2_secondary_rat_usage_data_report_usage_data_ul = internal global i32 0, align 4
@hf_gtpv2_secondary_rat_usage_data_report_srudn_length = internal global i32 0, align 4
@hf_gtpv2_secondary_rat_usage_data_report_srudn_value = internal global i32 0, align 4
@.str.1208 = private unnamed_addr constant [36 x i8] c"SecondaryRATDataUsageReportTransfer\00", align 1
@ett_gtpv2_son_con = internal global i32 0, align 4
@ett_gtpv2_secondary_rat_usage_data_report = internal global i32 0, align 4

; Function Attrs: null_pointer_is_valid sspstrong uwtable
define internal void @dissect_gtpv2_secondary_rat_usage_data_report(ptr noundef %0, ptr noundef %1, ptr noundef %2, ptr noundef %3, i16 noundef zeroext %4, i8 noundef zeroext %5, i8 noundef zeroext %6, ptr noundef %7) #1 {
  %9 = alloca ptr, align 8
  %10 = alloca ptr, align 8
  %11 = alloca ptr, align 8
  %12 = alloca ptr, align 8
  %13 = alloca i16, align 2
  %14 = alloca i8, align 1
  %15 = alloca i8, align 1
  %16 = alloca ptr, align 8
  %17 = alloca ptr, align 8
  %18 = alloca ptr, align 8
  %19 = alloca i32, align 4
  %20 = alloca i32, align 4
  %21 = alloca i64, align 8
  %22 = alloca %struct._asn1_ctx_t, align 8
  store ptr %0, ptr %9, align 8
  store ptr %1, ptr %10, align 8
  store ptr %2, ptr %11, align 8
  store ptr %3, ptr %12, align 8
  store i16 %4, ptr %13, align 2
  store i8 %5, ptr %14, align 1
  store i8 %6, ptr %15, align 1
  store ptr %7, ptr %16, align 8
  call void @llvm.lifetime.start.p0(i64 8, ptr %17) #11
  call void @llvm.lifetime.start.p0(i64 8, ptr %18) #11
  call void @llvm.lifetime.start.p0(i64 4, ptr %19) #11
  store i32 0, ptr %19, align 4
  call void @llvm.lifetime.start.p0(i64 4, ptr %20) #11
  call void @llvm.lifetime.start.p0(i64 8, ptr %21) #11
  store i64 0, ptr %21, align 8
  %23 = load ptr, ptr %11, align 8
  %24 = load ptr, ptr %9, align 8
  %25 = load i32, ptr @hf_gtpv2_secondary_rat_usage_data_report, align 4
  %26 = load i32, ptr @ett_gtpv2_secondary_rat_usage_data_report, align 4
  %27 = call ptr @proto_tree_add_bitmask_with_flags_ret_uint64(ptr noundef %23, ptr noundef %24, i32 noundef 0, i32 noundef %25, i32 noundef %26, ptr noundef @dissect_gtpv2_secondary_rat_usage_data_report.secondary_rat_usage_data_report_flags, i32 noundef 0, i32 noundef 1, ptr noundef %21)
  %28 = load i32, ptr %19, align 4
  %29 = add i32 %28, 1
  store i32 %29, ptr %19, align 4
  %30 = load ptr, ptr %11, align 8
  %31 = load i32, ptr @hf_gtpv2_secondary_rat_usage_data_report_rat_type, align 4
  %32 = load ptr, ptr %9, align 8
  %33 = load i32, ptr %19, align 4
  %34 = call ptr @proto_tree_add_item(ptr noundef %30, i32 noundef %31, ptr noundef %32, i32 noundef %33, i32 noundef 1, i32 noundef 0)
  %35 = load i32, ptr %19, align 4
  %36 = add i32 %35, 1
  store i32 %36, ptr %19, align 4
  %37 = load ptr, ptr %11, align 8
  %38 = load i32, ptr @hf_gtpv2_spare_bits, align 4
  %39 = load ptr, ptr %9, align 8
  %40 = load i32, ptr %19, align 4
  %41 = shl i32 %40, 3
  %42 = call ptr @proto_tree_add_bits_item(ptr noundef %37, i32 noundef %38, ptr noundef %39, i32 noundef %41, i32 noundef 4, i32 noundef 0)
  %43 = load ptr, ptr %11, align 8
  %44 = load i32, ptr @hf_gtpv2_ebi, align 4
  %45 = load ptr, ptr %9, align 8
  %46 = load i32, ptr %19, align 4
  %47 = call ptr @proto_tree_add_item(ptr noundef %43, i32 noundef %44, ptr noundef %45, i32 noundef %46, i32 noundef 1, i32 noundef 0)
  %48 = load i32, ptr %19, align 4
  %49 = add i32 %48, 1
  store i32 %49, ptr %19, align 4
  %50 = load ptr, ptr %11, align 8
  %51 = load i32, ptr @hf_gtpv2_secondary_rat_usage_data_report_start_timestamp, align 4
  %52 = load ptr, ptr %9, align 8
  %53 = load i32, ptr %19, align 4
  %54 = call ptr @proto_tree_add_item(ptr noundef %50, i32 noundef %51, ptr noundef %52, i32 noundef %53, i32 noundef 4, i32 noundef 2)
  %55 = load i32, ptr %19, align 4
  %56 = add i32 %55, 4
  store i32 %56, ptr %19, align 4
  %57 = load ptr, ptr %11, align 8
  %58 = load i32, ptr @hf_gtpv2_secondary_rat_usage_data_report_end_timestamp, align 4
  %59 = load ptr, ptr %9, align 8
  %60 = load i32, ptr %19, align 4
  %61 = call ptr @proto_tree_add_item(ptr noundef %57, i32 noundef %58, ptr noundef %59, i32 noundef %60, i32 noundef 4, i32 noundef 2)
  %62 = load i32, ptr %19, align 4
  %63 = add i32 %62, 4
  store i32 %63, ptr %19, align 4
  %64 = load ptr, ptr %11, align 8
  %65 = load i32, ptr @hf_gtpv2_secondary_rat_usage_data_report_usage_data_dl, align 4
  %66 = load ptr, ptr %9, align 8
  %67 = load i32, ptr %19, align 4
  %68 = call ptr @proto_tree_add_item(ptr noundef %64, i32 noundef %65, ptr noundef %66, i32 noundef %67, i32 noundef 8, i32 noundef 0)
  %69 = load i32, ptr %19, align 4
  %70 = add i32 %69, 8
  store i32 %70, ptr %19, align 4
  %71 = load ptr, ptr %11, align 8
  %72 = load i32, ptr @hf_gtpv2_secondary_rat_usage_data_report_usage_data_ul, align 4
  %73 = load ptr, ptr %9, align 8
  %74 = load i32, ptr %19, align 4
  %75 = call ptr @proto_tree_add_item(ptr noundef %71, i32 noundef %72, ptr noundef %73, i32 noundef %74, i32 noundef 8, i32 noundef 0)
  %76 = load i32, ptr %19, align 4
  %77 = add i32 %76, 8
  store i32 %77, ptr %19, align 4
  %78 = load i64, ptr %21, align 8
  %79 = and i64 %78, 4
  %80 = icmp ne i64 %79, 0
  br i1 %80, label %81, label %107

81:                                               ; preds = %8
  %82 = load ptr, ptr %11, align 8
  %83 = load i32, ptr @hf_gtpv2_secondary_rat_usage_data_report_srudn_length, align 4
  %84 = load ptr, ptr %9, align 8
  %85 = load i32, ptr %19, align 4
  %86 = call ptr @proto_tree_add_item_ret_uint(ptr noundef %82, i32 noundef %83, ptr noundef %84, i32 noundef %85, i32 noundef 1, i32 noundef 0, ptr noundef %20)
  %87 = load i32, ptr %19, align 4
  %88 = add i32 %87, 1
  store i32 %88, ptr %19, align 4
  %89 = load ptr, ptr %11, align 8
  %90 = load ptr, ptr %9, align 8
  %91 = load i32, ptr %19, align 4
  %92 = load i32, ptr %20, align 4
  %93 = load i32, ptr @ett_gtpv2_son_con, align 4
  %94 = call ptr @proto_tree_add_subtree(ptr noundef %89, ptr noundef %90, i32 noundef %91, i32 noundef %92, i32 noundef %93, ptr noundef null, ptr noundef @.str.1208)
  store ptr %94, ptr %18, align 8
  %95 = load ptr, ptr %9, align 8
  %96 = load i32, ptr %19, align 4
  %97 = load i32, ptr %20, align 4
  %98 = call ptr @tvb_new_subset_length(ptr noundef %95, i32 noundef %96, i32 noundef %97)
  store ptr %98, ptr %17, align 8
  call void @llvm.lifetime.start.p0(i64 208, ptr %22) #11
  %99 = load ptr, ptr %10, align 8
  call void @asn1_ctx_init(ptr noundef %22, i32 noundef 1, i1 noundef zeroext true, ptr noundef %99)
  %100 = load ptr, ptr %17, align 8
  %101 = load ptr, ptr %18, align 8
  %102 = load i32, ptr @hf_gtpv2_secondary_rat_usage_data_report_srudn_value, align 4
  %103 = call i32 @dissect_ngap_SecondaryRATDataUsageReportTransfer(ptr noundef %100, i32 noundef 0, ptr noundef %22, ptr noundef %101, i32 noundef %102)
  %104 = load i32, ptr %19, align 4
  %105 = load i32, ptr %20, align 4
  %106 = add i32 %104, %105
  store i32 %106, ptr %19, align 4
  call void @llvm.lifetime.end.p0(i64 208, ptr %22) #11
  br label %107

107:                                              ; preds = %81, %8
  %108 = load i16, ptr %13, align 2
  %109 = zext i16 %108 to i32
  %110 = load i32, ptr %19, align 4
  %111 = sub i32 %109, %110
  %112 = icmp ne i32 %111, 0
  br i1 %112, label %113, label %119

113:                                              ; preds = %107
  %114 = load ptr, ptr %11, align 8
  %115 = load ptr, ptr %10, align 8
  %116 = load ptr, ptr %9, align 8
  %117 = load i32, ptr %19, align 4
  %118 = call ptr (ptr, ptr, ptr, ptr, i32, i32, ptr, ...) @proto_tree_add_expert_format(ptr noundef %114, ptr noundef %115, ptr noundef @ei_gtpv2_ie_data_not_dissected, ptr noundef %116, i32 noundef %117, i32 noundef -1, ptr noundef @.str.3)
  br label %119

119:                                              ; preds = %113, %107
  call void @llvm.lifetime.end.p0(i64 8, ptr %21) #11
  call void @llvm.lifetime.end.p0(i64 4, ptr %20) #11
  call void @llvm.lifetime.end.p0(i64 4, ptr %19) #11
  call void @llvm.lifetime.end.p0(i64 8, ptr %18) #11
  call void @llvm.lifetime.end.p0(i64 8, ptr %17) #11
  ret void
}