; Function Attrs: null_pointer_is_valid sspstrong uwtable
define internal void @dissect_gtpv2_secondary_rat_usage_data_report(ptr noundef %0, ptr noundef %1, ptr noundef %2, ptr readnone captures(none) %3, i16 noundef zeroext %4, i8 zeroext %5, i8 zeroext %6, ptr readnone captures(none) %7) #1 {
  %9 = alloca i32, align 4
  %10 = alloca i64, align 8
  %11 = alloca %struct._asn1_ctx_t, align 8
  call void @llvm.lifetime.start.p0(i64 4, ptr nonnull %9) #12
  call void @llvm.lifetime.start.p0(i64 8, ptr nonnull %10) #12
  store i64 0, ptr %10, align 8
  %12 = load i32, ptr @hf_gtpv2_secondary_rat_usage_data_report, align 4
  %13 = load i32, ptr @ett_gtpv2_secondary_rat_usage_data_report, align 4
  %14 = call ptr @proto_tree_add_bitmask_with_flags_ret_uint64(ptr noundef %2, ptr noundef %0, i32 noundef 0, i32 noundef %12, i32 noundef %13, ptr noundef nonnull @dissect_gtpv2_secondary_rat_usage_data_report.secondary_rat_usage_data_report_flags, i32 noundef 0, i32 noundef 1, ptr noundef nonnull %10)
  %15 = load i32, ptr @hf_gtpv2_secondary_rat_usage_data_report_rat_type, align 4
  %16 = call ptr @proto_tree_add_item(ptr noundef %2, i32 noundef %15, ptr noundef %0, i32 noundef 1, i32 noundef 1, i32 noundef 0)
  %17 = load i32, ptr @hf_gtpv2_spare_bits, align 4
  %18 = call ptr @proto_tree_add_bits_item(ptr noundef %2, i32 noundef %17, ptr noundef %0, i32 noundef 16, i32 noundef 4, i32 noundef 0)
  %19 = load i32, ptr @hf_gtpv2_ebi, align 4
  %20 = call ptr @proto_tree_add_item(ptr noundef %2, i32 noundef %19, ptr noundef %0, i32 noundef 2, i32 noundef 1, i32 noundef 0)
  %21 = load i32, ptr @hf_gtpv2_secondary_rat_usage_data_report_start_timestamp, align 4
  %22 = call ptr @proto_tree_add_item(ptr noundef %2, i32 noundef %21, ptr noundef %0, i32 noundef 3, i32 noundef 4, i32 noundef 2)
  %23 = load i32, ptr @hf_gtpv2_secondary_rat_usage_data_report_end_timestamp, align 4
  %24 = call ptr @proto_tree_add_item(ptr noundef %2, i32 noundef %23, ptr noundef %0, i32 noundef 7, i32 noundef 4, i32 noundef 2)
  %25 = load i32, ptr @hf_gtpv2_secondary_rat_usage_data_report_usage_data_dl, align 4
  %26 = call ptr @proto_tree_add_item(ptr noundef %2, i32 noundef %25, ptr noundef %0, i32 noundef 11, i32 noundef 8, i32 noundef 0)
  %27 = load i32, ptr @hf_gtpv2_secondary_rat_usage_data_report_usage_data_ul, align 4
  %28 = call ptr @proto_tree_add_item(ptr noundef %2, i32 noundef %27, ptr noundef %0, i32 noundef 19, i32 noundef 8, i32 noundef 0)
  %29 = load i64, ptr %10, align 8
  %30 = and i64 %29, 4
  %.not = icmp eq i64 %30, 0
  br i1 %.not, label %43, label %31

31:                                               ; preds = %8
  %32 = load i32, ptr @hf_gtpv2_secondary_rat_usage_data_report_srudn_length, align 4
  %33 = call ptr @proto_tree_add_item_ret_uint(ptr noundef %2, i32 noundef %32, ptr noundef %0, i32 noundef 27, i32 noundef 1, i32 noundef 0, ptr noundef nonnull %9)
  %34 = load i32, ptr %9, align 4
  %35 = load i32, ptr @ett_gtpv2_son_con, align 4
  %36 = call ptr @proto_tree_add_subtree(ptr noundef %2, ptr noundef %0, i32 noundef 28, i32 noundef %34, i32 noundef %35, ptr noundef null, ptr noundef nonnull @.str.1208)
  %37 = load i32, ptr %9, align 4
  %38 = call ptr @tvb_new_subset_length(ptr noundef %0, i32 noundef 28, i32 noundef %37)
  call void @llvm.lifetime.start.p0(i64 208, ptr nonnull %11) #12
  call void @asn1_ctx_init(ptr noundef nonnull %11, i32 noundef 1, i1 noundef zeroext true, ptr noundef %1)
  %39 = load i32, ptr @hf_gtpv2_secondary_rat_usage_data_report_srudn_value, align 4
  %40 = call i32 @dissect_ngap_SecondaryRATDataUsageReportTransfer(ptr noundef %38, i32 noundef 0, ptr noundef nonnull %11, ptr noundef %36, i32 noundef %39)
  %41 = load i32, ptr %9, align 4
  %42 = add i32 %41, 28
  call void @llvm.lifetime.end.p0(i64 208, ptr nonnull %11) #12
  br label %43

43:                                               ; preds = %31, %8
  %.0 = phi i32 [ %42, %31 ], [ 27, %8 ]
  %44 = zext i16 %4 to i32
  %.not48 = icmp eq i32 %.0, %44
  br i1 %.not48, label %47, label %45

45:                                               ; preds = %43
  %46 = call ptr (ptr, ptr, ptr, ptr, i32, i32, ptr, ...) @proto_tree_add_expert_format(ptr noundef %2, ptr noundef %1, ptr noundef nonnull @ei_gtpv2_ie_data_not_dissected, ptr noundef %0, i32 noundef %.0, i32 noundef -1, ptr noundef nonnull @.str.3)
  br label %47

47:                                               ; preds = %45, %43
  call void @llvm.lifetime.end.p0(i64 8, ptr nonnull %10) #12
  call void @llvm.lifetime.end.p0(i64 4, ptr nonnull %9) #12
  ret void
}